; Function Attrs: mustprogress nofree norecurse nosync nounwind willreturn memory(argmem: readwrite) uwtable
define range(i32 0, 2) i32 @stbi__bmp_set_mask_defaults(ptr noundef captures(none) %0, i32 noundef %1) local_unnamed_addr #8 {
  switch i32 %1, label %14 [
    i32 3, label %15
    i32 0, label %3
  ]

3:                                                ; preds = %2
  %4 = load i32, ptr %0, align 4, !tbaa !47
  %5 = getelementptr inbounds nuw i8, ptr %0, i64 16
  %6 = getelementptr inbounds nuw i8, ptr %0, i64 12
  switch i32 %4, label %13 [
    i32 16, label %7
    i32 32, label %9
  ]

7:                                                ; preds = %3
  store i32 31744, ptr %6, align 4, !tbaa !42
  store i32 992, ptr %5, align 4, !tbaa !43
  %8 = getelementptr inbounds nuw i8, ptr %0, i64 20
  store i32 31, ptr %8, align 4, !tbaa !44
  br label %15

9:                                                ; preds = %3
  store i32 16711680, ptr %6, align 4, !tbaa !42
  store i32 65280, ptr %5, align 4, !tbaa !43
  %10 = getelementptr inbounds nuw i8, ptr %0, i64 20
  store i32 255, ptr %10, align 4, !tbaa !44
  %11 = getelementptr inbounds nuw i8, ptr %0, i64 24
  store i32 -16777216, ptr %11, align 4, !tbaa !45
  %12 = getelementptr inbounds nuw i8, ptr %0, i64 28
  store i32 0, ptr %12, align 4, !tbaa !38
  br label %15

13:                                               ; preds = %3
  tail call void @llvm.memset.p0.i64(ptr noundef nonnull align 4 dereferenceable(16) %6, i8 0, i64 16, i1 false)
  br label %15

14:                                               ; preds = %2
  br label %15

15:                                               ; preds = %7, %13, %9, %2, %14
  %.0 = phi i32 [ 0, %14 ], [ 1, %2 ], [ 1, %9 ], [ 1, %13 ], [ 1, %7 ]
  ret i32 %.0
}